target datalayout = "e-m:e-p270:32:32-p271:32:32-p272:64:64-i64:64-i128:128-f80:128-n8:16:32:64-S128"
target triple = "x86_64-pc-linux-gnu"

%"class.llvm::SMLoc" = type { ptr }
%"class.llvm::StringRef" = type { ptr, i64 }
%"class.std::unique_ptr" = type { %"struct.std::__uniq_ptr_data" }
%"struct.std::__uniq_ptr_data" = type { %"class.std::__uniq_ptr_impl" }
%"class.std::__uniq_ptr_impl" = type { %"class.std::tuple" }
%"class.std::tuple" = type { %"struct.std::_Tuple_impl" }
%"struct.std::_Tuple_impl" = type { %"struct.std::_Head_base.1" }
%"struct.std::_Head_base.1" = type { ptr }
%"struct.std::_Rb_tree_header" = type { %"struct.std::_Rb_tree_node_base", i64 }
%"struct.std::_Rb_tree_node_base" = type { i32, ptr, ptr, ptr }
%"class.std::__cxx11::basic_string" = type { %"struct.std::__cxx11::basic_string<char>::_Alloc_hider", i64, %union.anon }
%"struct.std::__cxx11::basic_string<char>::_Alloc_hider" = type { ptr }
%union.anon = type { i64, [8 x i8] }
%"class.llvm::SmallVectorBase" = type { ptr, i32, i32 }
%"class.llvm::Twine" = type <{ %"union.llvm::Twine::Child", %"union.llvm::Twine::Child", i8, i8, [6 x i8] }>
%"union.llvm::Twine::Child" = type { %struct.anon }
%struct.anon = type { ptr, i64 }
%"class.llvm::TGParser" = type <{ %"class.llvm::TGLexer", %"class.std::vector.66", %"class.std::map.71", %"class.std::map.76", %"class.std::vector.81", %"class.llvm::SmallVector.86", ptr, %"class.std::unique_ptr", ptr, i8, i8, [6 x i8] }>
%"class.llvm::TGLexer" = type { ptr, ptr, %"class.llvm::StringRef", ptr, i32, %"class.std::__cxx11::basic_string", i64, i32, %"class.std::set", %"class.llvm::StringSet", %"class.std::vector.61" }
%"class.std::set" = type { %"class.std::_Rb_tree.55" }
%"class.std::_Rb_tree.55" = type { %"struct.std::_Rb_tree<std::__cxx11::basic_string<char>, std::__cxx11::basic_string<char>, std::_Identity<std::__cxx11::basic_string<char>>, std::less<std::__cxx11::basic_string<char>>>::_Rb_tree_impl" }
%"struct.std::_Rb_tree<std::__cxx11::basic_string<char>, std::__cxx11::basic_string<char>, std::_Identity<std::__cxx11::basic_string<char>>, std::less<std::__cxx11::basic_string<char>>>::_Rb_tree_impl" = type { [8 x i8], %"struct.std::_Rb_tree_header" }
%"class.llvm::StringSet" = type { %"class.llvm::StringMap.60" }
%"class.llvm::StringMap.60" = type { %"class.llvm::StringMapImpl" }
%"class.llvm::StringMapImpl" = type { ptr, i32, i32, i32, i32 }
%"class.std::vector.61" = type { %"struct.std::_Vector_base.62" }
%"struct.std::_Vector_base.62" = type { %"struct.std::_Vector_base<std::unique_ptr<std::vector<llvm::TGLexer::PreprocessorControlDesc>>, std::allocator<std::unique_ptr<std::vector<llvm::TGLexer::PreprocessorControlDesc>>>>::_Vector_impl" }
%"struct.std::_Vector_base<std::unique_ptr<std::vector<llvm::TGLexer::PreprocessorControlDesc>>, std::allocator<std::unique_ptr<std::vector<llvm::TGLexer::PreprocessorControlDesc>>>>::_Vector_impl" = type { %"struct.std::_Vector_base<std::unique_ptr<std::vector<llvm::TGLexer::PreprocessorControlDesc>>, std::allocator<std::unique_ptr<std::vector<llvm::TGLexer::PreprocessorControlDesc>>>>::_Vector_impl_data" }
%"struct.std::_Vector_base<std::unique_ptr<std::vector<llvm::TGLexer::PreprocessorControlDesc>>, std::allocator<std::unique_ptr<std::vector<llvm::TGLexer::PreprocessorControlDesc>>>>::_Vector_impl_data" = type { ptr, ptr, ptr }
%"class.std::vector.66" = type { %"struct.std::_Vector_base.67" }
%"struct.std::_Vector_base.67" = type { %"struct.std::_Vector_base<llvm::SmallVector<llvm::LetRecord, 4>, std::allocator<llvm::SmallVector<llvm::LetRecord, 4>>>::_Vector_impl" }
%"struct.std::_Vector_base<llvm::SmallVector<llvm::LetRecord, 4>, std::allocator<llvm::SmallVector<llvm::LetRecord, 4>>>::_Vector_impl" = type { %"struct.std::_Vector_base<llvm::SmallVector<llvm::LetRecord, 4>, std::allocator<llvm::SmallVector<llvm::LetRecord, 4>>>::_Vector_impl_data" }
%"struct.std::_Vector_base<llvm::SmallVector<llvm::LetRecord, 4>, std::allocator<llvm::SmallVector<llvm::LetRecord, 4>>>::_Vector_impl_data" = type { ptr, ptr, ptr }
%"class.std::map.71" = type { %"class.std::_Rb_tree.72" }
%"class.std::_Rb_tree.72" = type { %"struct.std::_Rb_tree<std::__cxx11::basic_string<char>, std::pair<const std::__cxx11::basic_string<char>, std::unique_ptr<llvm::MultiClass>>, std::_Select1st<std::pair<const std::__cxx11::basic_string<char>, std::unique_ptr<llvm::MultiClass>>>, std::less<std::__cxx11::basic_string<char>>>::_Rb_tree_impl" }
%"struct.std::_Rb_tree<std::__cxx11::basic_string<char>, std::pair<const std::__cxx11::basic_string<char>, std::unique_ptr<llvm::MultiClass>>, std::_Select1st<std::pair<const std::__cxx11::basic_string<char>, std::unique_ptr<llvm::MultiClass>>>, std::less<std::__cxx11::basic_string<char>>>::_Rb_tree_impl" = type { [8 x i8], %"struct.std::_Rb_tree_header" }
%"class.std::map.76" = type { %"class.std::_Rb_tree.77" }
%"class.std::_Rb_tree.77" = type { %"struct.std::_Rb_tree<std::__cxx11::basic_string<char>, std::pair<const std::__cxx11::basic_string<char>, llvm::RecTy *>, std::_Select1st<std::pair<const std::__cxx11::basic_string<char>, llvm::RecTy *>>, std::less<std::__cxx11::basic_string<char>>>::_Rb_tree_impl" }
%"struct.std::_Rb_tree<std::__cxx11::basic_string<char>, std::pair<const std::__cxx11::basic_string<char>, llvm::RecTy *>, std::_Select1st<std::pair<const std::__cxx11::basic_string<char>, llvm::RecTy *>>, std::less<std::__cxx11::basic_string<char>>>::_Rb_tree_impl" = type { [8 x i8], %"struct.std::_Rb_tree_header" }
%"class.std::vector.81" = type { %"struct.std::_Vector_base.82" }
%"struct.std::_Vector_base.82" = type { %"struct.std::_Vector_base<std::unique_ptr<llvm::ForeachLoop>, std::allocator<std::unique_ptr<llvm::ForeachLoop>>>::_Vector_impl" }
%"struct.std::_Vector_base<std::unique_ptr<llvm::ForeachLoop>, std::allocator<std::unique_ptr<llvm::ForeachLoop>>>::_Vector_impl" = type { %"struct.std::_Vector_base<std::unique_ptr<llvm::ForeachLoop>, std::allocator<std::unique_ptr<llvm::ForeachLoop>>>::_Vector_impl_data" }
%"struct.std::_Vector_base<std::unique_ptr<llvm::ForeachLoop>, std::allocator<std::unique_ptr<llvm::ForeachLoop>>>::_Vector_impl_data" = type { ptr, ptr, ptr }
%"class.llvm::SmallVector.86" = type { %"class.llvm::SmallVectorImpl.87", %"struct.llvm::SmallVectorStorage.90" }
%"class.llvm::SmallVectorImpl.87" = type { %"class.llvm::SmallVectorTemplateBase.88" }
%"class.llvm::SmallVectorTemplateBase.88" = type { %"class.llvm::SmallVectorTemplateCommon.89" }
%"class.llvm::SmallVectorTemplateCommon.89" = type { %"class.llvm::SmallVectorBase" }
%"struct.llvm::SmallVectorStorage.90" = type { [16 x i8] }
%"class.llvm::ArrayRef.144" = type { ptr, i64 }

@.str.210 = private unnamed_addr constant [55 x i8] c"Expected '{' to start body or ';' for declaration only\00", align 1
@.str.211 = private unnamed_addr constant [52 x i8] c"A class or def body should not end with a semicolon\00", align 1
@.str.212 = private unnamed_addr constant [50 x i8] c"Semicolon ignored; remove to eliminate this error\00", align 1

; Function Attrs: mustprogress nounwind uwtable
define linkonce_odr hidden noundef ptr @_ZNK4llvm9StringRef5beginEv(ptr noundef nonnull align 8 dereferenceable(16) %0) #0 comdat align 2 {
  %2 = alloca ptr, align 8
  store ptr %0, ptr %2, align 8
  %3 = load ptr, ptr %2, align 8
  %4 = getelementptr inbounds nuw %"class.llvm::StringRef", ptr %3, i32 0, i32 0
  %5 = load ptr, ptr %4, align 8
  ret ptr %5
}

; Function Attrs: mustprogress nounwind uwtable
define linkonce_odr hidden noundef zeroext i1 @_ZNK4llvm8TGParser5ErrorENS_5SMLocERKNS_5TwineE(ptr noundef nonnull align 8 dereferenceable(394) %0, ptr %1, ptr noundef nonnull align 8 dereferenceable(34) %2) #0 comdat align 2 {
  %4 = alloca %"class.llvm::SMLoc", align 8
  %5 = alloca ptr, align 8
  %6 = alloca ptr, align 8
  %7 = alloca %"class.llvm::ArrayRef.144", align 8
  %8 = getelementptr inbounds nuw %"class.llvm::SMLoc", ptr %4, i32 0, i32 0
  store ptr %1, ptr %8, align 8
  store ptr %0, ptr %5, align 8
  store ptr %2, ptr %6, align 8
  call void @_ZN4llvm8ArrayRefINS_5SMLocEEC2ERKS1_(ptr noundef nonnull align 8 dereferenceable(16) %7, ptr noundef nonnull align 8 dereferenceable(8) %4)
  %9 = load ptr, ptr %6, align 8
  %10 = getelementptr inbounds nuw { ptr, i64 }, ptr %7, i32 0, i32 0
  %11 = load ptr, ptr %10, align 8
  %12 = getelementptr inbounds nuw { ptr, i64 }, ptr %7, i32 0, i32 1
  %13 = load i64, ptr %12, align 8
  call void @_ZN4llvm10PrintErrorENS_8ArrayRefINS_5SMLocEEERKNS_5TwineE(ptr %11, i64 %13, ptr noundef nonnull align 8 dereferenceable(34) %9)
  ret i1 true
}

; Function Attrs: mustprogress nounwind uwtable
define linkonce_odr hidden void @_ZN4llvm8ArrayRefINS_5SMLocEEC2ERKS1_(ptr noundef nonnull align 8 dereferenceable(16) %0, ptr noundef nonnull align 8 dereferenceable(8) %1) unnamed_addr #0 comdat align 2 {
  %3 = alloca ptr, align 8
  %4 = alloca ptr, align 8
  store ptr %0, ptr %3, align 8
  store ptr %1, ptr %4, align 8
  %5 = load ptr, ptr %3, align 8
  %6 = getelementptr inbounds nuw %"class.llvm::ArrayRef.144", ptr %5, i32 0, i32 0
  %7 = load ptr, ptr %4, align 8
  store ptr %7, ptr %6, align 8
  %8 = getelementptr inbounds nuw %"class.llvm::ArrayRef.144", ptr %5, i32 0, i32 1
  store i64 1, ptr %8, align 8
  ret void
}

; Function Attrs: mustprogress nounwind uwtable
define linkonce_odr hidden noundef i32 @_ZN4llvm7TGLexer3LexEv(ptr noundef nonnull align 8 dereferenceable(192) %0) #0 comdat align 2 {
  %2 = alloca ptr, align 8
  store ptr %0, ptr %2, align 8
  %3 = load ptr, ptr %2, align 8
  %4 = getelementptr inbounds nuw %"class.llvm::TGLexer", ptr %3, i32 0, i32 1
  %5 = load ptr, ptr %4, align 8
  %6 = getelementptr inbounds nuw %"class.llvm::TGLexer", ptr %3, i32 0, i32 2
  %7 = call noundef ptr @_ZNK4llvm9StringRef5beginEv(ptr noundef nonnull align 8 dereferenceable(16) %6)
  %8 = icmp eq ptr %5, %7
  %9 = call noundef i32 @_ZN4llvm7TGLexer8LexTokenEb(ptr noundef nonnull align 8 dereferenceable(192) %3, i1 noundef zeroext %8)
  %10 = getelementptr inbounds nuw %"class.llvm::TGLexer", ptr %3, i32 0, i32 4
  store i32 %9, ptr %10, align 8
  ret i32 %9
}

; Function Attrs: mustprogress nounwind uwtable
define linkonce_odr hidden noundef i32 @_ZNK4llvm7TGLexer7getCodeEv(ptr noundef nonnull align 8 dereferenceable(192) %0) #0 comdat align 2 {
  %2 = alloca ptr, align 8
  store ptr %0, ptr %2, align 8
  %3 = load ptr, ptr %2, align 8
  %4 = getelementptr inbounds nuw %"class.llvm::TGLexer", ptr %3, i32 0, i32 4
  %5 = load i32, ptr %4, align 8
  ret i32 %5
}

; Function Attrs: mustprogress nounwind uwtable
define linkonce_odr hidden noundef zeroext i1 @_ZNK4llvm8TGParser8TokErrorERKNS_5TwineE(ptr noundef nonnull align 8 dereferenceable(394) %0, ptr noundef nonnull align 8 dereferenceable(34) %1) #0 comdat align 2 {
  %3 = alloca ptr, align 8
  %4 = alloca ptr, align 8
  %5 = alloca %"class.llvm::SMLoc", align 8
  store ptr %0, ptr %3, align 8
  store ptr %1, ptr %4, align 8
  %6 = load ptr, ptr %3, align 8
  %7 = getelementptr inbounds nuw %"class.llvm::TGParser", ptr %6, i32 0, i32 0
  %8 = call ptr @_ZNK4llvm7TGLexer6getLocEv(ptr noundef nonnull align 8 dereferenceable(192) %7)
  %9 = getelementptr inbounds nuw %"class.llvm::SMLoc", ptr %5, i32 0, i32 0
  store ptr %8, ptr %9, align 8
  %10 = load ptr, ptr %4, align 8
  %11 = getelementptr inbounds nuw %"class.llvm::SMLoc", ptr %5, i32 0, i32 0
  %12 = load ptr, ptr %11, align 8
  %13 = call noundef zeroext i1 @_ZNK4llvm8TGParser5ErrorENS_5SMLocERKNS_5TwineE(ptr noundef nonnull align 8 dereferenceable(394) %6, ptr %12, ptr noundef nonnull align 8 dereferenceable(34) %10)
  ret i1 %13
}

; Function Attrs: mustprogress nounwind uwtable
define linkonce_odr hidden void @_ZN4llvm5TwineC2EPKc(ptr noundef nonnull align 8 dereferenceable(34) %0, ptr noundef %1) unnamed_addr #0 comdat align 2 {
  %3 = alloca ptr, align 8
  %4 = alloca ptr, align 8
  store ptr %0, ptr %3, align 8
  store ptr %1, ptr %4, align 8
  %5 = load ptr, ptr %3, align 8
  %6 = getelementptr inbounds nuw %"class.llvm::Twine", ptr %5, i32 0, i32 2
  store i8 1, ptr %6, align 8
  %7 = getelementptr inbounds nuw %"class.llvm::Twine", ptr %5, i32 0, i32 3
  store i8 1, ptr %7, align 1
  %8 = load ptr, ptr %4, align 8
  %9 = getelementptr inbounds i8, ptr %8, i64 0
  %10 = load i8, ptr %9, align 1
  %11 = sext i8 %10 to i32
  %12 = icmp ne i32 %11, 0
  br i1 %12, label %13, label %17

13:                                               ; preds = %2
  %14 = load ptr, ptr %4, align 8
  %15 = getelementptr inbounds nuw %"class.llvm::Twine", ptr %5, i32 0, i32 0
  store ptr %14, ptr %15, align 8
  %16 = getelementptr inbounds nuw %"class.llvm::Twine", ptr %5, i32 0, i32 2
  store i8 3, ptr %16, align 8
  br label %19

17:                                               ; preds = %2
  %18 = getelementptr inbounds nuw %"class.llvm::Twine", ptr %5, i32 0, i32 2
  store i8 1, ptr %18, align 8
  br label %19

19:                                               ; preds = %17, %13
  ret void
}

; Function Attrs: mustprogress nounwind uwtable
define dso_local noundef zeroext i1 @_ZN4llvm8TGParser7consumeENS_5tgtok7TokKindE(ptr noundef nonnull align 8 dereferenceable(394) %0, i32 noundef %1) #0 align 2 {
  %3 = alloca i1, align 1
  %4 = alloca ptr, align 8
  %5 = alloca i32, align 4
  store ptr %0, ptr %4, align 8
  store i32 %1, ptr %5, align 4
  %6 = load ptr, ptr %4, align 8
  %7 = getelementptr inbounds nuw %"class.llvm::TGParser", ptr %6, i32 0, i32 0
  %8 = call noundef i32 @_ZNK4llvm7TGLexer7getCodeEv(ptr noundef nonnull align 8 dereferenceable(192) %7)
  %9 = load i32, ptr %5, align 4
  %10 = icmp eq i32 %8, %9
  br i1 %10, label %11, label %14

11:                                               ; preds = %2
  %12 = getelementptr inbounds nuw %"class.llvm::TGParser", ptr %6, i32 0, i32 0
  %13 = call noundef i32 @_ZN4llvm7TGLexer3LexEv(ptr noundef nonnull align 8 dereferenceable(192) %12)
  store i1 true, ptr %3, align 1
  br label %15

14:                                               ; preds = %2
  store i1 false, ptr %3, align 1
  br label %15

15:                                               ; preds = %14, %11
  %16 = load i1, ptr %3, align 1
  ret i1 %16
}

; Function Attrs: mustprogress nounwind uwtable
define dso_local noundef zeroext i1 @_ZN4llvm8TGParser9ParseBodyEPNS_6RecordE(ptr noundef nonnull align 8 dereferenceable(394) %0, ptr noundef %1) #0 align 2 {
  %3 = alloca i1, align 1
  %4 = alloca ptr, align 8
  %5 = alloca ptr, align 8
  %6 = alloca %"class.llvm::Twine", align 8
  %7 = alloca %"class.llvm::SMLoc", align 8
  %8 = alloca %"class.llvm::ArrayRef.144", align 8
  %9 = alloca %"class.llvm::Twine", align 8
  %10 = alloca %"class.llvm::Twine", align 8
  store ptr %0, ptr %4, align 8
  store ptr %1, ptr %5, align 8
  %11 = load ptr, ptr %4, align 8
  %12 = call noundef zeroext i1 @_ZN4llvm8TGParser7consumeENS_5tgtok7TokKindE(ptr noundef nonnull align 8 dereferenceable(394) %11, i32 noundef 13)
  br i1 %12, label %13, label %14

13:                                               ; preds = %2
  store i1 false, ptr %3, align 1
  br label %41

14:                                               ; preds = %2
  %15 = call noundef zeroext i1 @_ZN4llvm8TGParser7consumeENS_5tgtok7TokKindE(ptr noundef nonnull align 8 dereferenceable(394) %11, i32 noundef 6)
  br i1 %15, label %18, label %16

16:                                               ; preds = %14
  call void @_ZN4llvm5TwineC2EPKc(ptr noundef nonnull align 8 dereferenceable(34) %6, ptr noundef @.str.210)
  %17 = call noundef zeroext i1 @_ZNK4llvm8TGParser8TokErrorERKNS_5TwineE(ptr noundef nonnull align 8 dereferenceable(394) %11, ptr noundef nonnull align 8 dereferenceable(34) %6)
  store i1 %17, ptr %3, align 1
  br label %41

18:                                               ; preds = %14
  br label %19

19:                                               ; preds = %27, %18
  %20 = getelementptr inbounds nuw %"class.llvm::TGParser", ptr %11, i32 0, i32 0
  %21 = call noundef i32 @_ZNK4llvm7TGLexer7getCodeEv(ptr noundef nonnull align 8 dereferenceable(192) %20)
  %22 = icmp ne i32 %21, 7
  br i1 %22, label %23, label %28

23:                                               ; preds = %19
  %24 = load ptr, ptr %5, align 8
  %25 = call noundef zeroext i1 @_ZN4llvm8TGParser13ParseBodyItemEPNS_6RecordE(ptr noundef nonnull align 8 dereferenceable(394) %11, ptr noundef %24)
  br i1 %25, label %26, label %27

26:                                               ; preds = %23
  store i1 true, ptr %3, align 1
  br label %41

27:                                               ; preds = %23
  br label %19, !llvm.loop !27

28:                                               ; preds = %19
  %29 = getelementptr inbounds nuw %"class.llvm::TGParser", ptr %11, i32 0, i32 0
  %30 = call noundef i32 @_ZN4llvm7TGLexer3LexEv(ptr noundef nonnull align 8 dereferenceable(192) %29)
  %31 = getelementptr inbounds nuw %"class.llvm::TGParser", ptr %11, i32 0, i32 0
  %32 = call ptr @_ZNK4llvm7TGLexer6getLocEv(ptr noundef nonnull align 8 dereferenceable(192) %31)
  %33 = getelementptr inbounds nuw %"class.llvm::SMLoc", ptr %7, i32 0, i32 0
  store ptr %32, ptr %33, align 8
  %34 = call noundef zeroext i1 @_ZN4llvm8TGParser7consumeENS_5tgtok7TokKindE(ptr noundef nonnull align 8 dereferenceable(394) %11, i32 noundef 13)
  br i1 %34, label %35, label %40

35:                                               ; preds = %28
  call void @_ZN4llvm8ArrayRefINS_5SMLocEEC2ERKS1_(ptr noundef nonnull align 8 dereferenceable(16) %8, ptr noundef nonnull align 8 dereferenceable(8) %7)
  call void @_ZN4llvm5TwineC2EPKc(ptr noundef nonnull align 8 dereferenceable(34) %9, ptr noundef @.str.211)
  %36 = getelementptr inbounds nuw { ptr, i64 }, ptr %8, i32 0, i32 0
  %37 = load ptr, ptr %36, align 8
  %38 = getelementptr inbounds nuw { ptr, i64 }, ptr %8, i32 0, i32 1
  %39 = load i64, ptr %38, align 8
  call void @_ZN4llvm10PrintErrorENS_8ArrayRefINS_5SMLocEEERKNS_5TwineE(ptr %37, i64 %39, ptr noundef nonnull align 8 dereferenceable(34) %9)
  call void @_ZN4llvm5TwineC2EPKc(ptr noundef nonnull align 8 dereferenceable(34) %10, ptr noundef @.str.212)
  call void @_ZN4llvm9PrintNoteERKNS_5TwineE(ptr noundef nonnull align 8 dereferenceable(34) %10)
  br label %40

40:                                               ; preds = %35, %28
  store i1 false, ptr %3, align 1
  br label %41

41:                                               ; preds = %40, %26, %16, %13
  %42 = load i1, ptr %3, align 1
  ret i1 %42
}