; Function Attrs: mustprogress nounwind uwtable
define dso_local noundef zeroext i1 @_ZN4llvm8TGParser9ParseBodyEPNS_6RecordE(ptr noundef nonnull align 8 dereferenceable(394) %0, ptr noundef %1) local_unnamed_addr #0 align 2 {
  %3 = alloca %"class.llvm::SMLoc", align 8
  %4 = alloca %"class.llvm::Twine", align 8
  %5 = alloca %"class.llvm::SMLoc", align 8
  %6 = alloca %"class.llvm::Twine", align 8
  %7 = alloca %"class.llvm::Twine", align 8
  %8 = getelementptr inbounds nuw i8, ptr %0, i64 40
  %9 = load i32, ptr %8, align 8
  switch i32 %9, label %22 [
    i32 13, label %_ZN4llvm8TGParser7consumeENS_5tgtok7TokKindE.exit.thread
    i32 6, label %_ZN4llvm8TGParser7consumeENS_5tgtok7TokKindE.exit3
  ]

_ZN4llvm8TGParser7consumeENS_5tgtok7TokKindE.exit.thread: ; preds = %2
  %10 = getelementptr inbounds nuw i8, ptr %0, i64 8
  %11 = load ptr, ptr %10, align 8
  %12 = getelementptr inbounds nuw i8, ptr %0, i64 16
  %13 = load ptr, ptr %12, align 8
  %14 = icmp eq ptr %11, %13
  %15 = tail call noundef i32 @_ZN4llvm7TGLexer8LexTokenEb(ptr noundef nonnull align 8 dereferenceable(394) %0, i1 noundef zeroext %14) #17
  store i32 %15, ptr %8, align 8
  br label %_ZN4llvm8TGParser7consumeENS_5tgtok7TokKindE.exit4

_ZN4llvm8TGParser7consumeENS_5tgtok7TokKindE.exit3: ; preds = %2
  %16 = getelementptr inbounds nuw i8, ptr %0, i64 8
  %17 = load ptr, ptr %16, align 8
  %18 = getelementptr inbounds nuw i8, ptr %0, i64 16
  %19 = load ptr, ptr %18, align 8
  %20 = icmp eq ptr %17, %19
  %21 = tail call noundef i32 @_ZN4llvm7TGLexer8LexTokenEb(ptr noundef nonnull align 8 dereferenceable(394) %0, i1 noundef zeroext %20) #17
  store i32 %21, ptr %8, align 8
  %.not5 = icmp eq i32 %21, 7
  br i1 %.not5, label %._crit_edge, label %.lr.ph

22:                                               ; preds = %2
  %23 = getelementptr inbounds nuw i8, ptr %4, i64 32
  %24 = getelementptr inbounds nuw i8, ptr %4, i64 33
  store i8 1, ptr %24, align 1
  store ptr @.str.210, ptr %4, align 8
  store i8 3, ptr %23, align 8
  %25 = tail call ptr @_ZNK4llvm7TGLexer6getLocEv(ptr noundef nonnull align 8 dereferenceable(394) %0) #17
  call void @llvm.lifetime.start.p0(i64 8, ptr nonnull %3)
  store ptr %25, ptr %3, align 8
  call void @_ZN4llvm10PrintErrorENS_8ArrayRefINS_5SMLocEEERKNS_5TwineE(ptr nonnull %3, i64 1, ptr noundef nonnull align 8 dereferenceable(34) %4) #17
  call void @llvm.lifetime.end.p0(i64 8, ptr nonnull %3)
  br label %_ZN4llvm8TGParser7consumeENS_5tgtok7TokKindE.exit4

thread-pre-split:                                 ; preds = %.lr.ph
  %.pr = load i32, ptr %8, align 8
  %.not = icmp eq i32 %.pr, 7
  br i1 %.not, label %._crit_edge, label %.lr.ph

.lr.ph:                                           ; preds = %_ZN4llvm8TGParser7consumeENS_5tgtok7TokKindE.exit3, %thread-pre-split
  %26 = tail call noundef zeroext i1 @_ZN4llvm8TGParser13ParseBodyItemEPNS_6RecordE(ptr noundef nonnull align 8 dereferenceable(394) %0, ptr noundef %1)
  br i1 %26, label %_ZN4llvm8TGParser7consumeENS_5tgtok7TokKindE.exit4, label %thread-pre-split, !llvm.loop !521

._crit_edge:                                      ; preds = %thread-pre-split, %_ZN4llvm8TGParser7consumeENS_5tgtok7TokKindE.exit3
  %27 = load ptr, ptr %16, align 8
  %28 = load ptr, ptr %18, align 8
  %29 = icmp eq ptr %27, %28
  %30 = tail call noundef i32 @_ZN4llvm7TGLexer8LexTokenEb(ptr noundef nonnull align 8 dereferenceable(192) %0, i1 noundef zeroext %29) #17
  store i32 %30, ptr %8, align 8
  %31 = tail call ptr @_ZNK4llvm7TGLexer6getLocEv(ptr noundef nonnull align 8 dereferenceable(192) %0) #17
  store ptr %31, ptr %5, align 8
  %32 = load i32, ptr %8, align 8
  %33 = icmp eq i32 %32, 13
  br i1 %33, label %34, label %_ZN4llvm8TGParser7consumeENS_5tgtok7TokKindE.exit4

34:                                               ; preds = %._crit_edge
  %35 = load ptr, ptr %16, align 8
  %36 = load ptr, ptr %18, align 8
  %37 = icmp eq ptr %35, %36
  %38 = tail call noundef i32 @_ZN4llvm7TGLexer8LexTokenEb(ptr noundef nonnull align 8 dereferenceable(394) %0, i1 noundef zeroext %37) #17
  store i32 %38, ptr %8, align 8
  %39 = getelementptr inbounds nuw i8, ptr %6, i64 32
  %40 = getelementptr inbounds nuw i8, ptr %6, i64 33
  store i8 1, ptr %40, align 1
  store ptr @.str.211, ptr %6, align 8
  store i8 3, ptr %39, align 8
  call void @_ZN4llvm10PrintErrorENS_8ArrayRefINS_5SMLocEEERKNS_5TwineE(ptr nonnull %5, i64 1, ptr noundef nonnull align 8 dereferenceable(34) %6) #17
  %41 = getelementptr inbounds nuw i8, ptr %7, i64 32
  %42 = getelementptr inbounds nuw i8, ptr %7, i64 33
  store i8 1, ptr %42, align 1
  store ptr @.str.212, ptr %7, align 8
  store i8 3, ptr %41, align 8
  call void @_ZN4llvm9PrintNoteERKNS_5TwineE(ptr noundef nonnull align 8 dereferenceable(34) %7) #17
  br label %_ZN4llvm8TGParser7consumeENS_5tgtok7TokKindE.exit4

_ZN4llvm8TGParser7consumeENS_5tgtok7TokKindE.exit4: ; preds = %.lr.ph, %._crit_edge, %_ZN4llvm8TGParser7consumeENS_5tgtok7TokKindE.exit.thread, %34, %22
  %.0 = phi i1 [ true, %22 ], [ false, %34 ], [ false, %_ZN4llvm8TGParser7consumeENS_5tgtok7TokKindE.exit.thread ], [ false, %._crit_edge ], [ true, %.lr.ph ]
  ret i1 %.0
}